; ModuleID = '21/292.c'
source_filename = "21/292.c"
target datalayout = "e-m:e-p270:32:32-p271:32:32-p272:64:64-i64:64-f80:128-n8:16:32:64-S128"
target triple = "x86_64-pc-linux-gnu"

@.str = private unnamed_addr constant [3 x i8] c"%d\00", align 1
@.str.1 = private unnamed_addr constant [4 x i8] c",%d\00", align 1

; Function Attrs: noinline nounwind uwtable
define dso_local void @main() #0 {
  %1 = alloca i32, align 4
  %2 = alloca [301 x i32], align 16
  %3 = alloca i32, align 4
  %4 = alloca i32, align 4
  %5 = alloca double, align 8
  %6 = alloca double, align 8
  %7 = alloca i32, align 4
  %8 = alloca [301 x i32], align 16
  %9 = alloca i32, align 4
  %10 = alloca i32, align 4
  %11 = bitcast [301 x i32]* %2 to i8*
  call void @llvm.memset.p0i8.i64(i8* align 16 %11, i8 0, i64 1204, i1 false)
  store double 0.000000e+00, double* %5, align 8
  store double 0.000000e+00, double* %6, align 8
  store i32 0, i32* %7, align 4
  %12 = bitcast [301 x i32]* %8 to i8*
  call void @llvm.memset.p0i8.i64(i8* align 16 %12, i8 0, i64 1204, i1 false)
  store i32 0, i32* %9, align 4
  %13 = call i32 (i8*, ...) @__isoc99_scanf(i8* getelementptr inbounds ([3 x i8], [3 x i8]* @.str, i64 0, i64 0), i32* %1)
  store i32 0, i32* %3, align 4
  br label %14

14:                                               ; preds = %30, %0
  %15 = load i32, i32* %3, align 4
  %16 = load i32, i32* %1, align 4
  %17 = icmp slt i32 %15, %16
  br i1 %17, label %18, label %33

18:                                               ; preds = %14
  %19 = load i32, i32* %3, align 4
  %20 = sext i32 %19 to i64
  %21 = getelementptr inbounds [301 x i32], [301 x i32]* %2, i64 0, i64 %20
  %22 = call i32 (i8*, ...) @__isoc99_scanf(i8* getelementptr inbounds ([3 x i8], [3 x i8]* @.str, i64 0, i64 0), i32* %21)
  %23 = load i32, i32* %3, align 4
  %24 = sext i32 %23 to i64
  %25 = getelementptr inbounds [301 x i32], [301 x i32]* %2, i64 0, i64 %24
  %26 = load i32, i32* %25, align 4
  %27 = sitofp i32 %26 to double
  %28 = load double, double* %5, align 8
  %29 = fadd double %28, %27
  store double %29, double* %5, align 8
  br label %30

30:                                               ; preds = %18
  %31 = load i32, i32* %3, align 4
  %32 = add nsw i32 %31, 1
  store i32 %32, i32* %3, align 4
  br label %14

33:                                               ; preds = %14
  %34 = load double, double* %5, align 8
  %35 = load i32, i32* %1, align 4
  %36 = sitofp i32 %35 to double
  %37 = fdiv double %34, %36
  store double %37, double* %5, align 8
  store i32 0, i32* %3, align 4
  br label %38

38:                                               ; preds = %78, %33
  %39 = load i32, i32* %3, align 4
  %40 = load i32, i32* %1, align 4
  %41 = icmp slt i32 %39, %40
  br i1 %41, label %42, label %81

42:                                               ; preds = %38
  %43 = load double, double* %5, align 8
  %44 = load i32, i32* %3, align 4
  %45 = sext i32 %44 to i64
  %46 = getelementptr inbounds [301 x i32], [301 x i32]* %2, i64 0, i64 %45
  %47 = load i32, i32* %46, align 4
  %48 = sitofp i32 %47 to double
  %49 = fsub double %43, %48
  %50 = load double, double* %6, align 8
  %51 = fcmp ogt double %49, %50
  br i1 %51, label %62, label %52

52:                                               ; preds = %42
  %53 = load i32, i32* %3, align 4
  %54 = sext i32 %53 to i64
  %55 = getelementptr inbounds [301 x i32], [301 x i32]* %2, i64 0, i64 %54
  %56 = load i32, i32* %55, align 4
  %57 = sitofp i32 %56 to double
  %58 = load double, double* %5, align 8
  %59 = fsub double %57, %58
  %60 = load double, double* %6, align 8
  %61 = fcmp ogt double %59, %60
  br i1 %61, label %62, label %77

62:                                               ; preds = %52, %42
  %63 = load double, double* %5, align 8
  %64 = load i32, i32* %3, align 4
  %65 = sext i32 %64 to i64
  %66 = getelementptr inbounds [301 x i32], [301 x i32]* %2, i64 0, i64 %65
  %67 = load i32, i32* %66, align 4
  %68 = sitofp i32 %67 to double
  %69 = fsub double %63, %68
  store double %69, double* %6, align 8
  %70 = load i32, i32* %3, align 4
  store i32 %70, i32* %4, align 4
  %71 = load double, double* %6, align 8
  %72 = fcmp olt double %71, 0.000000e+00
  br i1 %72, label %73, label %76

73:                                               ; preds = %62
  %74 = load double, double* %6, align 8
  %75 = fsub double 0.000000e+00, %74
  store double %75, double* %6, align 8
  br label %76

76:                                               ; preds = %73, %62
  br label %77

77:                                               ; preds = %76, %52
  br label %78

78:                                               ; preds = %77
  %79 = load i32, i32* %3, align 4
  %80 = add nsw i32 %79, 1
  store i32 %80, i32* %3, align 4
  br label %38

81:                                               ; preds = %38
  store i32 0, i32* %3, align 4
  br label %82

82:                                               ; preds = %151, %81
  %83 = load i32, i32* %3, align 4
  %84 = load i32, i32* %1, align 4
  %85 = icmp slt i32 %83, %84
  br i1 %85, label %86, label %154

86:                                               ; preds = %82
  %87 = load double, double* %5, align 8
  %88 = load i32, i32* %3, align 4
  %89 = sext i32 %88 to i64
  %90 = getelementptr inbounds [301 x i32], [301 x i32]* %2, i64 0, i64 %89
  %91 = load i32, i32* %90, align 4
  %92 = sitofp i32 %91 to double
  %93 = fsub double %87, %92
  %94 = load double, double* %6, align 8
  %95 = fsub double %93, %94
  %96 = fcmp olt double %95, 1.000000e-03
  br i1 %96, label %97, label %118

97:                                               ; preds = %86
  %98 = load i32, i32* %3, align 4
  %99 = sext i32 %98 to i64
  %100 = getelementptr inbounds [301 x i32], [301 x i32]* %2, i64 0, i64 %99
  %101 = load i32, i32* %100, align 4
  %102 = sitofp i32 %101 to double
  %103 = load double, double* %6, align 8
  %104 = fadd double %102, %103
  %105 = load double, double* %5, align 8
  %106 = fsub double %104, %105
  %107 = fcmp olt double %106, 1.000000e-03
  br i1 %107, label %108, label %118

108:                                              ; preds = %97
  %109 = load i32, i32* %3, align 4
  %110 = sext i32 %109 to i64
  %111 = getelementptr inbounds [301 x i32], [301 x i32]* %2, i64 0, i64 %110
  %112 = load i32, i32* %111, align 4
  %113 = load i32, i32* %7, align 4
  %114 = sext i32 %113 to i64
  %115 = getelementptr inbounds [301 x i32], [301 x i32]* %8, i64 0, i64 %114
  store i32 %112, i32* %115, align 4
  %116 = load i32, i32* %7, align 4
  %117 = add nsw i32 %116, 1
  store i32 %117, i32* %7, align 4
  br label %118

118:                                              ; preds = %108, %97, %86
  %119 = load i32, i32* %3, align 4
  %120 = sext i32 %119 to i64
  %121 = getelementptr inbounds [301 x i32], [301 x i32]* %2, i64 0, i64 %120
  %122 = load i32, i32* %121, align 4
  %123 = sitofp i32 %122 to double
  %124 = load double, double* %5, align 8
  %125 = fsub double %123, %124
  %126 = load double, double* %6, align 8
  %127 = fsub double %125, %126
  %128 = fcmp olt double %127, 1.000000e-03
  br i1 %128, label %129, label %150

129:                                              ; preds = %118
  %130 = load double, double* %5, align 8
  %131 = load double, double* %6, align 8
  %132 = fadd double %130, %131
  %133 = load i32, i32* %3, align 4
  %134 = sext i32 %133 to i64
  %135 = getelementptr inbounds [301 x i32], [301 x i32]* %2, i64 0, i64 %134
  %136 = load i32, i32* %135, align 4
  %137 = sitofp i32 %136 to double
  %138 = fsub double %132, %137
  %139 = fcmp olt double %138, 1.000000e-03
  br i1 %139, label %140, label %150

140:                                              ; preds = %129
  %141 = load i32, i32* %3, align 4
  %142 = sext i32 %141 to i64
  %143 = getelementptr inbounds [301 x i32], [301 x i32]* %2, i64 0, i64 %142
  %144 = load i32, i32* %143, align 4
  %145 = load i32, i32* %7, align 4
  %146 = sext i32 %145 to i64
  %147 = getelementptr inbounds [301 x i32], [301 x i32]* %8, i64 0, i64 %146
  store i32 %144, i32* %147, align 4
  %148 = load i32, i32* %7, align 4
  %149 = add nsw i32 %148, 1
  store i32 %149, i32* %7, align 4
  br label %150

150:                                              ; preds = %140, %129, %118
  br label %151

151:                                              ; preds = %150
  %152 = load i32, i32* %3, align 4
  %153 = add nsw i32 %152, 1
  store i32 %153, i32* %3, align 4
  br label %82

154:                                              ; preds = %82
  %155 = load i32, i32* %7, align 4
  store i32 %155, i32* %3, align 4
  br label %156

156:                                              ; preds = %199, %154
  %157 = load i32, i32* %3, align 4
  %158 = icmp sgt i32 %157, 0
  br i1 %158, label %159, label %202

159:                                              ; preds = %156
  store i32 0, i32* %4, align 4
  br label %160

160:                                              ; preds = %195, %159
  %161 = load i32, i32* %4, align 4
  %162 = load i32, i32* %3, align 4
  %163 = sub nsw i32 %162, 1
  %164 = icmp slt i32 %161, %163
  br i1 %164, label %165, label %198

165:                                              ; preds = %160
  %166 = load i32, i32* %4, align 4
  %167 = sext i32 %166 to i64
  %168 = getelementptr inbounds [301 x i32], [301 x i32]* %8, i64 0, i64 %167
  %169 = load i32, i32* %168, align 4
  %170 = load i32, i32* %4, align 4
  %171 = add nsw i32 %170, 1
  %172 = sext i32 %171 to i64
  %173 = getelementptr inbounds [301 x i32], [301 x i32]* %8, i64 0, i64 %172
  %174 = load i32, i32* %173, align 4
  %175 = icmp sgt i32 %169, %174
  br i1 %175, label %176, label %194

176:                                              ; preds = %165
  %177 = load i32, i32* %4, align 4
  %178 = sext i32 %177 to i64
  %179 = getelementptr inbounds [301 x i32], [301 x i32]* %8, i64 0, i64 %178
  %180 = load i32, i32* %179, align 4
  store i32 %180, i32* %10, align 4
  %181 = load i32, i32* %4, align 4
  %182 = add nsw i32 %181, 1
  %183 = sext i32 %182 to i64
  %184 = getelementptr inbounds [301 x i32], [301 x i32]* %8, i64 0, i64 %183
  %185 = load i32, i32* %184, align 4
  %186 = load i32, i32* %4, align 4
  %187 = sext i32 %186 to i64
  %188 = getelementptr inbounds [301 x i32], [301 x i32]* %8, i64 0, i64 %187
  store i32 %185, i32* %188, align 4
  %189 = load i32, i32* %10, align 4
  %190 = load i32, i32* %4, align 4
  %191 = add nsw i32 %190, 1
  %192 = sext i32 %191 to i64
  %193 = getelementptr inbounds [301 x i32], [301 x i32]* %8, i64 0, i64 %192
  store i32 %189, i32* %193, align 4
  br label %194

194:                                              ; preds = %176, %165
  br label %195

195:                                              ; preds = %194
  %196 = load i32, i32* %4, align 4
  %197 = add nsw i32 %196, 1
  store i32 %197, i32* %4, align 4
  br label %160

198:                                              ; preds = %160
  br label %199

199:                                              ; preds = %198
  %200 = load i32, i32* %3, align 4
  %201 = add nsw i32 %200, -1
  store i32 %201, i32* %3, align 4
  br label %156

202:                                              ; preds = %156
  store i32 0, i32* %3, align 4
  br label %203

203:                                              ; preds = %223, %202
  %204 = load i32, i32* %3, align 4
  %205 = load i32, i32* %7, align 4
  %206 = icmp slt i32 %204, %205
  br i1 %206, label %207, label %226

207:                                              ; preds = %203
  %208 = load i32, i32* %9, align 4
  %209 = icmp eq i32 %208, 0
  br i1 %209, label %210, label %216

210:                                              ; preds = %207
  %211 = load i32, i32* %3, align 4
  %212 = sext i32 %211 to i64
  %213 = getelementptr inbounds [301 x i32], [301 x i32]* %8, i64 0, i64 %212
  %214 = load i32, i32* %213, align 4
  %215 = call i32 (i8*, ...) @printf(i8* getelementptr inbounds ([3 x i8], [3 x i8]* @.str, i64 0, i64 0), i32 %214)
  store i32 1, i32* %9, align 4
  br label %222

216:                                              ; preds = %207
  %217 = load i32, i32* %3, align 4
  %218 = sext i32 %217 to i64
  %219 = getelementptr inbounds [301 x i32], [301 x i32]* %8, i64 0, i64 %218
  %220 = load i32, i32* %219, align 4
  %221 = call i32 (i8*, ...) @printf(i8* getelementptr inbounds ([4 x i8], [4 x i8]* @.str.1, i64 0, i64 0), i32 %220)
  br label %222

222:                                              ; preds = %216, %210
  br label %223

223:                                              ; preds = %222
  %224 = load i32, i32* %3, align 4
  %225 = add nsw i32 %224, 1
  store i32 %225, i32* %3, align 4
  br label %203

226:                                              ; preds = %203
  ret void
}

; Function Attrs: argmemonly nounwind willreturn
declare void @llvm.memset.p0i8.i64(i8* nocapture writeonly, i8, i64, i1 immarg) #1

declare dso_local i32 @__isoc99_scanf(i8*, ...) #2

declare dso_local i32 @printf(i8*, ...) #2


!llvm.module.flags = !{!0}
!llvm.ident = !{!1}

!0 = !{i32 1, !"wchar_size", i32 4}
!1 = !{!"clang version 10.0.0-4ubuntu1 "}
